******************************************************************************
                  TI ARM Linker PC v16.6.0                     
******************************************************************************
>> Linked Sun Dec 04 16:51:58 2016

OUTPUT FILE NAME:   <SecuritySystem.out>
ENTRY POINT SYMBOL: "_c_int00"  address: 00004aa1


MEMORY CONFIGURATION

         name            origin    length      used     unused   attr    fill
----------------------  --------  ---------  --------  --------  ----  --------
  MAIN                  00000000   00040000  00005964  0003a69c  R  X
  INFO                  00200000   00004000  00000000  00004000  R  X
  SRAM_CODE             01000000   00010000  0000086d  0000f793  RW X
  SRAM_DATA             20000000   00010000  0000086d  0000f793  RW  


SEGMENT ALLOCATION MAP

run origin  load origin   length   init length attrs members
----------  ----------- ---------- ----------- ----- -------
00000000    00000000    00005968   00005968    r-x
  00000000    00000000    000000e4   000000e4    r-- .intvecs
  000000e4    000000e4    00004eea   00004eea    r-x .text
  00004fd0    00004fd0    00000906   00000906    r-- .const
  000058d8    000058d8    00000090   00000090    r-- .cinit
20000000    20000000    00000674   00000000    rw-
  20000000    20000000    000000e4   00000000    rw- .vtable
  200000e8    200000e8    00000400   00000000    rw- .sysmem
  200004e8    200004e8    00000111   00000000    rw- .bss
  200005fc    200005fc    00000078   00000000    rw- .data
2000fe00    2000fe00    00000200   00000000    rw-
  2000fe00    2000fe00    00000200   00000000    rw- .stack


SECTION ALLOCATION MAP

 output                                  attributes/
section   page    origin      length       input sections
--------  ----  ----------  ----------   ----------------
.intvecs   0    00000000    000000e4     
                  00000000    000000e4     startup_msp432p401r_ccs.obj (.intvecs:retain)

.binit     0    00000000    00000000     

.text      0    000000e4    00004eea     
                  000000e4    00001398     ST7735.obj (.text)
                  0000147c    00001142     rtsv7M4_T_le_v4SPD16_eabi.lib : _printfi.obj (.text)
                  000025be    00000002                                   : mpu_init.obj (.text)
                  000025c0    00000550     Display.obj (.text)
                  00002b10    000003d0     rtsv7M4_T_le_v4SPD16_eabi.lib : memory.obj (.text)
                  00002ee0    0000032c     system_msp432p401r.obj (.text)
                  0000320c    000002e8     Keypad.obj (.text)
                  000034f4    00000290     RTC.obj (.text)
                  00003784    000001f4     rtsv7M4_T_le_v4SPD16_eabi.lib : ull_div_t2.obj (.text)
                  00003978    000001bc     MainSequence.obj (.text)
                  00003b34    000001b6     rtsv7M4_T_le_v4SPD16_eabi.lib : fd_add_t2.obj (.text)
                  00003cea    00000136                                   : fd_div_t2.obj (.text)
                  00003e20    00000104     msp432p4xx_driverlib.lib : cs.o (.text:CS_getDCOFrequency)
                  00003f24    000000fc     rtsv7M4_T_le_v4SPD16_eabi.lib : fd_mul_t2.obj (.text)
                  00004020    000000fc                                   : s_scalbn.obj (.text)
                  0000411c    000000f0     Clock.obj (.text)
                  0000420c    000000e6     RGB.obj (.text)
                  000042f2    00000002     rtsv7M4_T_le_v4SPD16_eabi.lib : startup.obj (.text)
                  000042f4    000000e0     msp432p4xx_driverlib.lib : cs.o (.text:CS_initClockSignal)
                  000043d4    000000b0     Startup.obj (.text)
                  00004484    0000009c     msp432p4xx_driverlib.lib : cs.o (.text:CS_startHFXTWithTimeout)
                  00004520    0000009c                              : cs.o (.text:_CSComputeCLKFrequency)
                  000045bc    0000009c     rtsv7M4_T_le_v4SPD16_eabi.lib : memcpy_t2.obj (.text)
                  00004658    00000086                                   : fd_cmp_t2.obj (.text:__aeabi_cdcmple)
                  000046de    00000086                                   : fd_cmp_t2.obj (.text:__aeabi_cdrcmple)
                  00004764    0000007a                                   : memset_t2.obj (.text)
                  000047de    00000002     --HOLE-- [fill = 0]
                  000047e0    00000070     msp432p4xx_driverlib.lib : cs.o (.text:_CSGetHFXTFrequency)
                  00004850    00000070     rtsv7M4_T_le_v4SPD16_eabi.lib : autoinit.obj (.text)
                  000048c0    00000066                                   : copy_decompress_lzss.obj (.text:decompress:lzss)
                  00004926    00000002     --HOLE-- [fill = 0]
                  00004928    00000064                                   : s_frexp.obj (.text)
                  0000498c    00000060                                   : sprintf.obj (.text)
                  000049ec    0000005c     I2C.obj (.text)
                  00004a48    00000056     rtsv7M4_T_le_v4SPD16_eabi.lib : ltoa.obj (.text)
                  00004a9e    00000002     --HOLE-- [fill = 0]
                  00004aa0    00000054                                   : boot.obj (.text)
                  00004af4    00000054                                   : exit.obj (.text)
                  00004b48    00000050     msp432p4xx_driverlib.lib : sysctl.o (.text:SysCtl_getTLVInfo)
                  00004b98    0000004c                              : cs.o (.text:_CSGetDOCFrequency)
                  00004be4    0000004c     rtsv7M4_T_le_v4SPD16_eabi.lib : atoi.obj (.text)
                  00004c30    0000004c                                   : cpy_tbl.obj (.text)
                  00004c7c    00000048     msp432p4xx_driverlib.lib : gpio.o (.text:GPIO_setAsPeripheralModuleFunctionInputPin)
                  00004cc4    00000048                              : cs.o (.text:_CSGetDividerValue)
                  00004d0c    00000048     rtsv7M4_T_le_v4SPD16_eabi.lib : fd_toi_t2.obj (.text)
                  00004d54    00000034     msp432p4xx_driverlib.lib : interrupt.o (.text:Interrupt_registerInterrupt)
                  00004d88    0000002e     rtsv7M4_T_le_v4SPD16_eabi.lib : i_tofd_t2.obj (.text)
                  00004db6    00000002     --HOLE-- [fill = 0]
                  00004db8    0000002c     msp432p4xx_driverlib.lib : gpio.o (.text:GPIO_setAsInputPin)
                  00004de4    00000024                              : cs.o (.text:CS_clearInterruptFlag)
                  00004e08    00000024                              : gpio.o (.text:GPIO_setAsOutputPin)
                  00004e2c    0000001c     main.obj (.text)
                  00004e48    0000001c     rtsv7M4_T_le_v4SPD16_eabi.lib : memccpy.obj (.text)
                  00004e64    00000018     msp432p4xx_driverlib.lib : cs.o (.text:CS_getACLK)
                  00004e7c    00000018                              : cs.o (.text:CS_getMCLK)
                  00004e94    00000018                              : cs.o (.text:CS_getSMCLK)
                  00004eac    00000018                              : gpio.o (.text:GPIO_setOutputLowOnPin)
                  00004ec4    00000018                              : wdt_a.o (.text:WDT_A_holdTimer)
                  00004edc    00000018     rtsv7M4_T_le_v4SPD16_eabi.lib : args_main.obj (.text)
                  00004ef4    00000016                                   : strchr.obj (.text)
                  00004f0a    00000002     --HOLE-- [fill = 0]
                  00004f0c    00000014     msp432p4xx_driverlib.lib : cs.o (.text:CS_setExternalClockSourceFrequency)
                  00004f20    00000014                              : gpio.o (.text:GPIO_setOutputHighOnPin)
                  00004f34    00000014     rtsv7M4_T_le_v4SPD16_eabi.lib : _lock.obj (.text)
                  00004f48    00000014                                   : s_copysign.obj (.text)
                  00004f5c    00000014                                   : strlen.obj (.text)
                  00004f70    00000010     msp432p4xx_driverlib.lib : sysctl.o (.text:SysCtl_disableNMISource)
                  00004f80    00000010                              : sysctl.o (.text:SysCtl_enableNMISource)
                  00004f90    0000000e     rtsv7M4_T_le_v4SPD16_eabi.lib : copy_decompress_none.obj (.text:decompress:none)
                  00004f9e    0000000e     startup_msp432p401r_ccs.obj (.text)
                  00004fac    0000000c     msp432p4xx_driverlib.lib : sysctl.o (.text:SysCtl_getNMISourceStatus)
                  00004fb8    0000000c     rtsv7M4_T_le_v4SPD16_eabi.lib : copy_zero_init.obj (.text:decompress:ZI)
                  00004fc4    00000006     msp432p4xx_driverlib.lib : cs.o (.text:CS_startHFXT)
                  00004fca    00000004     rtsv7M4_T_le_v4SPD16_eabi.lib : pre_init.obj (.text)

.const     0    00004fd0    00000906     
                  00004fd0    000004fb     ST7735.obj (.const:.string:Font)
                  000054cb    00000200     ST7735.obj (.const:.string:dBfs)
                  000056cb    00000101     rtsv7M4_T_le_v4SPD16_eabi.lib : ctype.obj (.const:.string:_ctypes_)
                  000057cc    00000067     ST7735.obj (.const:.string:Bcmd)
                  00005833    0000003b     ST7735.obj (.const:.string:Rcmd1)
                  0000586e    0000002b     ST7735.obj (.const:.string:Rcmd3)
                  00005899    00000003     --HOLE-- [fill = 0]
                  0000589c    00000014     I2C.obj (.const:i2cConfig)
                  000058b0    0000000d     ST7735.obj (.const:.string:Rcmd2green)
                  000058bd    0000000d     ST7735.obj (.const:.string:Rcmd2red)
                  000058ca    0000000c     Keypad.obj (.const:$P$T0$3)

.cinit     0    000058d8    00000090     
                  000058d8    00000058     (.cinit..data.load) [load image, compression = lzss]
                  00005930    0000000c     (__TI_handler_table)
                  0000593c    00000004     --HOLE-- [fill = 0]
                  00005940    00000008     (.cinit..bss.load) [load image, compression = zero_init]
                  00005948    00000008     (.cinit..vtable.load) [load image, compression = zero_init]
                  00005950    00000018     (__TI_cinit_table)

.init_array 
*          0    00000000    00000000     UNINITIALIZED

.vtable    0    20000000    000000e4     UNINITIALIZED
                  20000000    000000e4     msp432p4xx_driverlib.lib : interrupt.o (.vtable)

.sysmem    0    200000e8    00000400     UNINITIALIZED
                  200000e8    00000008     rtsv7M4_T_le_v4SPD16_eabi.lib : memory.obj (.sysmem)
                  200000f0    000003f8     --HOLE--

.bss       0    200004e8    00000111     UNINITIALIZED
                  200004e8    00000088     (.common:SensorReadings)
                  20000570    0000004c     (.common:ClockRegisters)
                  200005bc    0000000c     Startup.obj (.bss)
                  200005c8    0000000c     (.common:Message)
                  200005d4    00000004     ST7735.obj (.bss)
                  200005d8    00000004     (.common:KeypadState)
                  200005dc    00000004     (.common:Messageindex)
                  200005e0    00000004     (.common:X)
                  200005e4    00000004     (.common:Ymax)
                  200005e8    00000004     (.common:Ymin)
                  200005ec    00000004     (.common:Yrange)
                  200005f0    00000004     (.common:hfxtFreq)
                  200005f4    00000004     (.common:lfxtFreq)
                  200005f8    00000001     (.common:RefreshInterrupt)

.data      0    200005fc    00000078     UNINITIALIZED
                  200005fc    00000030     msp432p4xx_driverlib.lib : gpio.o (.data:GPIO_PORT_TO_BASE)
                  2000062c    00000014     ST7735.obj (.data)
                  20000640    0000000c     rtsv7M4_T_le_v4SPD16_eabi.lib : exit.obj (.data:$O1$$)
                  2000064c    0000000c                                   : memory.obj (.data:$O1$$)
                  20000658    00000008                                   : _lock.obj (.data:$O1$$)
                  20000660    00000004     Keypad.obj (.data)
                  20000664    00000004     MainSequence.obj (.data)
                  20000668    00000004     rtsv7M4_T_le_v4SPD16_eabi.lib : errno.obj (.data)
                  2000066c    00000004                                   : stkdepth_vars.obj (.data)
                  20000670    00000004     system_msp432p401r.obj (.data)

.stack     0    2000fe00    00000200     UNINITIALIZED
                  2000fe00    00000200     --HOLE--

MODULE SUMMARY

       Module                        code    ro data   rw data
       ------                        ----    -------   -------
    .\
       system_msp432p401r.obj        812     0         8      
       main.obj                      28      0         434    
       startup_msp432p401r_ccs.obj   14      228       0      
    +--+-----------------------------+-------+---------+---------+
       Total:                        854     228       442    
                                                              
    .\Modules\
       ST7735.obj                    5016    2018      112    
       Display.obj                   1360    0         0      
       Keypad.obj                    744     12        8      
       RTC.obj                       656     0         0      
       Clock.obj                     240     0         0      
       RGB.obj                       230     0         0      
    +--+-----------------------------+-------+---------+---------+
       Total:                        8246    2030      120    
                                                              
    .\Protocols\
       I2C.obj                       92      20        0      
    +--+-----------------------------+-------+---------+---------+
       Total:                        92      20        0      
                                                              
    .\Sequences\
       MainSequence.obj              444     0         8      
       Startup.obj                   176     0         24     
    +--+-----------------------------+-------+---------+---------+
       Total:                        620     0         32     
                                                              
    ../msp432p4xx_driverlib.lib
       cs.o                          1190    0         16     
       interrupt.o                   52      0         456    
       gpio.o                        196     0         96     
       sysctl.o                      124     0         0      
       wdt_a.o                       24      0         0      
    +--+-----------------------------+-------+---------+---------+
       Total:                        1586    0         568    
                                                              
    C:\ti\ccsv6\tools\compiler\ti-cgt-arm_16.6.0.STS\lib\rtsv7M4_T_le_v4SPD16_eabi.lib
       _printfi.obj                  4418    0         0      
       memory.obj                    976     0         24     
       ull_div_t2.obj                500     0         0      
       fd_add_t2.obj                 438     0         0      
       fd_div_t2.obj                 310     0         0      
       fd_cmp_t2.obj                 268     0         0      
       ctype.obj                     0       257       0      
       fd_mul_t2.obj                 252     0         0      
       s_scalbn.obj                  252     0         0      
       memcpy_t2.obj                 156     0         0      
       memset_t2.obj                 122     0         0      
       autoinit.obj                  112     0         0      
       exit.obj                      84      0         24     
       copy_decompress_lzss.obj      102     0         0      
       s_frexp.obj                   100     0         0      
       sprintf.obj                   96      0         0      
       ltoa.obj                      86      0         0      
       boot.obj                      84      0         0      
       atoi.obj                      76      0         0      
       cpy_tbl.obj                   76      0         0      
       fd_toi_t2.obj                 72      0         0      
       i_tofd_t2.obj                 46      0         0      
       _lock.obj                     20      0         16     
       memccpy.obj                   28      0         0      
       args_main.obj                 24      0         0      
       strchr.obj                    22      0         0      
       s_copysign.obj                20      0         0      
       strlen.obj                    20      0         0      
       copy_decompress_none.obj      14      0         0      
       copy_zero_init.obj            12      0         0      
       errno.obj                     0       0         8      
       stkdepth_vars.obj             0       0         8      
       pre_init.obj                  4       0         0      
       mpu_init.obj                  2       0         0      
       startup.obj                   2       0         0      
    +--+-----------------------------+-------+---------+---------+
       Total:                        8794    257       80     
                                                              
       Heap:                         0       0         2048   
       Stack:                        0       0         1024   
       Linker Generated:             0       140       0      
    +--+-----------------------------+-------+---------+---------+
       Grand Total:                  20192   2675      4314   


LINKER GENERATED COPY TABLES

__TI_cinit_table @ 00005950 records: 3, size/record: 8, table size: 24
	.data: load addr=000058d8, load size=00000058 bytes, run addr=200005fc, run size=00000078 bytes, compression=lzss
	.bss: load addr=00005940, load size=00000008 bytes, run addr=200004e8, run size=00000111 bytes, compression=zero_init
	.vtable: load addr=00005948, load size=00000008 bytes, run addr=20000000, run size=000000e4 bytes, compression=zero_init


LINKER GENERATED HANDLER TABLE

__TI_handler_table @ 00005930 records: 3, size/record: 4, table size: 12
	index: 0, handler: __TI_zero_init
	index: 1, handler: __TI_decompress_lzss
	index: 2, handler: __TI_decompress_none


GLOBAL SYMBOLS: SORTED ALPHABETICALLY BY Name 

address   name                                      
-------   ----                                      
00004fab  ADC14_IRQHandler                          
00004fab  AES256_IRQHandler                         
00004fab  BusFault_Handler                          
00004af5  C$$EXIT                                   
00004fab  COMP_E0_IRQHandler                        
00004fab  COMP_E1_IRQHandler                        
00004fab  CS_IRQHandler                             
00004de5  CS_clearInterruptFlag                     
00004e65  CS_getACLK                                
00003e21  CS_getDCOFrequency                        
00004e7d  CS_getMCLK                                
00004e95  CS_getSMCLK                               
000042f5  CS_initClockSignal                        
00004f0d  CS_setExternalClockSourceFrequency        
00004fc5  CS_startHFXT                              
00004485  CS_startHFXTWithTimeout                   
20000570  ClockRegisters                            
0000411d  Clock_Init                                
00002a25  ConvertBCDToString                        
20000664  CurrentDigit                              
00004fab  DMA_ERR_IRQHandler                        
00004fab  DMA_INT0_IRQHandler                       
00004fab  DMA_INT1_IRQHandler                       
00004fab  DMA_INT2_IRQHandler                       
00004fab  DMA_INT3_IRQHandler                       
00004fab  DebugMon_Handler                          
00004fab  Default_Handler                           
0000015b  Delay1ms                                  
00002781  Display_Clear_Screen                      
00002a0f  Display_Init                              
0000278b  Display_Menu                              
000025c1  Display_Module_DrawString                 
000028a1  Display_Module_EnterPIN                   
00002625  Display_Module_MainScreen                 
000029d9  Display_Refresh                           
00002a59  Display_Splash_Screen                     
00004fab  EUSCIA0_IRQHandler                        
00004fab  EUSCIA1_IRQHandler                        
00004fab  EUSCIA2_IRQHandler                        
00004fab  EUSCIA3_IRQHandler                        
00004fab  EUSCIB0_IRQHandler                        
00004fab  EUSCIB1_IRQHandler                        
00004fab  EUSCIB2_IRQHandler                        
00004fab  EUSCIB3_IRQHandler                        
00003ae5  EqualPins                                 
00004fab  FLCTL_IRQHandler                          
00004fab  FPU_IRQHandler                            
00004db9  GPIO_setAsInputPin                        
00004e09  GPIO_setAsOutputPin                       
00004c7d  GPIO_setAsPeripheralModuleFunctionInputPin
00004f21  GPIO_setOutputHighOnPin                   
00004ead  GPIO_setOutputLowOnPin                    
00004fab  HardFault_Handler                         
000049ed  I2C_Init                                  
00004d55  Interrupt_registerInterrupt               
200005d8  KeypadState                               
0000330d  Keypad_Debounce                           
0000346f  Keypad_Execute                            
00003489  Keypad_ExecuteForPinEnter                 
0000320d  Keypad_Init                               
00003427  Keypad_InsertKeyCombo                     
00003339  Keypad_SaveButtonPress                    
0000321b  Keypad_Scan                               
00003979  Main_Sequence                             
00004fab  MemManage_Handler                         
200005c8  Message                                   
200005dc  Messageindex                              
00004fab  NMI_Handler                               
0000141b  Output_Clear                              
00001435  Output_Color                              
0000140b  Output_Init                               
00001425  Output_Off                                
0000142d  Output_On                                 
00004fab  PCM_IRQHandler                            
00004fab  PORT1_IRQHandler                          
00004fab  PORT2_IRQHandler                          
00004fab  PORT3_IRQHandler                          
00004fab  PORT4_IRQHandler                          
00004fab  PORT5_IRQHandler                          
00004fab  PORT6_IRQHandler                          
00004fab  PSS_IRQHandler                            
00004fab  PendSV_Handler                            
0000420d  RGB_Init                                  
0000423b  RGB_Module_SetColor                       
00004fab  RTC_C_IRQHandler                          
000035a1  RTC_Module_Read                           
000034f5  RTC_Module_Write                          
200005f8  RefreshInterrupt                          
00004f9f  Reset_Handler                             
UNDEFED   SHT$$INIT_ARRAY$$Base                     
UNDEFED   SHT$$INIT_ARRAY$$Limit                    
0000073d  ST7735_Color565                           
000007a1  ST7735_DrawBitmap                         
00000b11  ST7735_DrawChar                           
0000099d  ST7735_DrawCharS                          
00000535  ST7735_DrawFastHLine                      
00000477  ST7735_DrawFastVLine                      
0000041d  ST7735_DrawPixel                          
00000c81  ST7735_DrawString                         
00000631  ST7735_FillRect                           
000005ed  ST7735_FillScreen                         
000002e9  ST7735_InitB                              
00000309  ST7735_InitR                              
00000eb3  ST7735_InvertDisplay                      
000012f1  ST7735_OutChar                            
000013ad  ST7735_OutString                          
00000d6d  ST7735_OutUDec                            
000011fd  ST7735_PlotBar                            
00000ecb  ST7735_PlotClear                          
00000fed  ST7735_PlotLine                           
0000129d  ST7735_PlotNext                           
000012b7  ST7735_PlotNextErase                      
00000f27  ST7735_PlotPoint                          
00001127  ST7735_PlotPoints                         
00001253  ST7735_PlotdBfs                           
00000d47  ST7735_SetCursor                          
00000de9  ST7735_SetRotation                        
000013cb  ST7735_SetTextColor                       
00000771  ST7735_SwapColor                          
00004fab  SVC_Handler                               
200004e8  SensorReadings                            
20000634  StTextColor                               
2000062c  StX                                       
20000630  StY                                       
000043d5  Startup_Sequence                          
00004f71  SysCtl_disableNMISource                   
00004f81  SysCtl_enableNMISource                    
00004fad  SysCtl_getNMISourceStatus                 
00004b49  SysCtl_getTLVInfo                         
00004fab  SysTick_Handler                           
000041a5  SysTick_Init                              
000041c1  SysTick_delay                             
20000670  SystemCoreClock                           
00002ee1  SystemCoreClockUpdate                     
00003155  SystemInit                                
00004fab  T32_INT1_IRQHandler                       
00004fab  T32_INT2_IRQHandler                       
00004fab  T32_INTC_IRQHandler                       
00003acb  TA0_0_IRQHandler                          
00003acb  TA0_0_IRQHandler                          
00004fab  TA0_N_IRQHandler                          
00004fab  TA1_0_IRQHandler                          
00004fab  TA1_N_IRQHandler                          
00004fab  TA2_0_IRQHandler                          
00004fab  TA2_N_IRQHandler                          
00004fab  TA3_0_IRQHandler                          
00004fab  TA3_N_IRQHandler                          
00004fab  UsageFault_Handler                        
4000480c  WDTCTL_SYM                                
00004fab  WDT_A_IRQHandler                          
00004ec5  WDT_A_holdTimer                           
200005e0  X                                         
200005e4  Ymax                                      
200005e8  Ymin                                      
200005ec  Yrange                                    
20010000  __STACK_END                               
00000200  __STACK_SIZE                              
00000400  __SYSMEM_SIZE                             
00005950  __TI_CINIT_Base                           
00005968  __TI_CINIT_Limit                          
00005930  __TI_Handler_Table_Base                   
0000593c  __TI_Handler_Table_Limit                  
00004851  __TI_auto_init                            
20000640  __TI_cleanup_ptr                          
000048c1  __TI_decompress_lzss                      
00004f91  __TI_decompress_none                      
20000644  __TI_dtors_ptr                            
20000648  __TI_enable_exit_profile_output           
ffffffff  __TI_pprof_out_hndl                       
00001cc5  __TI_printfi                              
ffffffff  __TI_prof_data_size                       
ffffffff  __TI_prof_data_start                      
00000000  __TI_static_base__                        
00004fb9  __TI_zero_init                            
00004659  __aeabi_cdcmpeq                           
00004659  __aeabi_cdcmple                           
000046df  __aeabi_cdrcmple                          
00004d0d  __aeabi_d2iz                              
00003b3f  __aeabi_dadd                              
00003ceb  __aeabi_ddiv                              
00003f25  __aeabi_dmul                              
00003b35  __aeabi_dsub                              
00004d89  __aeabi_i2d                               
00004765  __aeabi_memclr                            
00004765  __aeabi_memclr4                           
00004765  __aeabi_memclr8                           
000045bd  __aeabi_memcpy                            
000045bd  __aeabi_memcpy4                           
000045bd  __aeabi_memcpy8                           
00004767  __aeabi_memset                            
00004767  __aeabi_memset4                           
00004767  __aeabi_memset8                           
00003785  __aeabi_uldivmod                          
ffffffff  __binit__                                 
ffffffff  __c_args__                                
000025bf  __mpu_init                                
2000fe00  __stack                                   
00004edd  _args_main                                
00004aa1  _c_int00                                  
000056cb  _ctypes_                                  
20000658  _lock                                     
00004f43  _nop                                      
00004f3b  _register_lock                            
00004f35  _register_unlock                          
200000e8  _sys_memory                               
000042f3  _system_post_cinit                        
00004fcb  _system_pre_init                          
2000065c  _unlock                                   
00004af9  abort                                     
00004be5  atoi                                      
ffffffff  binit                                     
00002eb1  calloc                                    
00004c31  copy_in                                   
00004f49  copysign                                  
00004f49  copysignl                                 
000054cb  dBfs                                      
20000668  errno                                     
00004b01  exit                                      
000013fd  ferror                                    
000013f1  fgetc                                     
00000d05  fillmessage                               
000013df  fputc                                     
00002bfb  free                                      
00004929  frexp                                     
00004929  frexpl                                    
20000000  g_pfnRAMVectors                           
0000589c  i2cConfig                                 
00000000  interruptVectors                          
2000063c  lastj                                     
00004021  ldexp                                     
00004021  ldexpl                                    
00004a49  ltoa                                      
00004e2d  main                                      
2000066c  main_func_sp                              
00002b91  malloc                                    
00002dc5  memalign                                  
00004e49  memccpy                                   
000045bd  memcpy                                    
0000476d  memset                                    
00002b11  minit                                     
0000014d  parrotdelay                               
00002cbd  realloc                                   
00004021  scalbn                                    
00004021  scalbnl                                   
0000498d  sprintf                                   
00004ef5  strchr                                    
00004f5d  strlen                                    


GLOBAL SYMBOLS: SORTED BY Symbol Address 

address   name                                      
-------   ----                                      
00000000  __TI_static_base__                        
00000000  interruptVectors                          
0000014d  parrotdelay                               
0000015b  Delay1ms                                  
00000200  __STACK_SIZE                              
000002e9  ST7735_InitB                              
00000309  ST7735_InitR                              
00000400  __SYSMEM_SIZE                             
0000041d  ST7735_DrawPixel                          
00000477  ST7735_DrawFastVLine                      
00000535  ST7735_DrawFastHLine                      
000005ed  ST7735_FillScreen                         
00000631  ST7735_FillRect                           
0000073d  ST7735_Color565                           
00000771  ST7735_SwapColor                          
000007a1  ST7735_DrawBitmap                         
0000099d  ST7735_DrawCharS                          
00000b11  ST7735_DrawChar                           
00000c81  ST7735_DrawString                         
00000d05  fillmessage                               
00000d47  ST7735_SetCursor                          
00000d6d  ST7735_OutUDec                            
00000de9  ST7735_SetRotation                        
00000eb3  ST7735_InvertDisplay                      
00000ecb  ST7735_PlotClear                          
00000f27  ST7735_PlotPoint                          
00000fed  ST7735_PlotLine                           
00001127  ST7735_PlotPoints                         
000011fd  ST7735_PlotBar                            
00001253  ST7735_PlotdBfs                           
0000129d  ST7735_PlotNext                           
000012b7  ST7735_PlotNextErase                      
000012f1  ST7735_OutChar                            
000013ad  ST7735_OutString                          
000013cb  ST7735_SetTextColor                       
000013df  fputc                                     
000013f1  fgetc                                     
000013fd  ferror                                    
0000140b  Output_Init                               
0000141b  Output_Clear                              
00001425  Output_Off                                
0000142d  Output_On                                 
00001435  Output_Color                              
00001cc5  __TI_printfi                              
000025bf  __mpu_init                                
000025c1  Display_Module_DrawString                 
00002625  Display_Module_MainScreen                 
00002781  Display_Clear_Screen                      
0000278b  Display_Menu                              
000028a1  Display_Module_EnterPIN                   
000029d9  Display_Refresh                           
00002a0f  Display_Init                              
00002a25  ConvertBCDToString                        
00002a59  Display_Splash_Screen                     
00002b11  minit                                     
00002b91  malloc                                    
00002bfb  free                                      
00002cbd  realloc                                   
00002dc5  memalign                                  
00002eb1  calloc                                    
00002ee1  SystemCoreClockUpdate                     
00003155  SystemInit                                
0000320d  Keypad_Init                               
0000321b  Keypad_Scan                               
0000330d  Keypad_Debounce                           
00003339  Keypad_SaveButtonPress                    
00003427  Keypad_InsertKeyCombo                     
0000346f  Keypad_Execute                            
00003489  Keypad_ExecuteForPinEnter                 
000034f5  RTC_Module_Write                          
000035a1  RTC_Module_Read                           
00003785  __aeabi_uldivmod                          
00003979  Main_Sequence                             
00003acb  TA0_0_IRQHandler                          
00003acb  TA0_0_IRQHandler                          
00003ae5  EqualPins                                 
00003b35  __aeabi_dsub                              
00003b3f  __aeabi_dadd                              
00003ceb  __aeabi_ddiv                              
00003e21  CS_getDCOFrequency                        
00003f25  __aeabi_dmul                              
00004021  ldexp                                     
00004021  ldexpl                                    
00004021  scalbn                                    
00004021  scalbnl                                   
0000411d  Clock_Init                                
000041a5  SysTick_Init                              
000041c1  SysTick_delay                             
0000420d  RGB_Init                                  
0000423b  RGB_Module_SetColor                       
000042f3  _system_post_cinit                        
000042f5  CS_initClockSignal                        
000043d5  Startup_Sequence                          
00004485  CS_startHFXTWithTimeout                   
000045bd  __aeabi_memcpy                            
000045bd  __aeabi_memcpy4                           
000045bd  __aeabi_memcpy8                           
000045bd  memcpy                                    
00004659  __aeabi_cdcmpeq                           
00004659  __aeabi_cdcmple                           
000046df  __aeabi_cdrcmple                          
00004765  __aeabi_memclr                            
00004765  __aeabi_memclr4                           
00004765  __aeabi_memclr8                           
00004767  __aeabi_memset                            
00004767  __aeabi_memset4                           
00004767  __aeabi_memset8                           
0000476d  memset                                    
00004851  __TI_auto_init                            
000048c1  __TI_decompress_lzss                      
00004929  frexp                                     
00004929  frexpl                                    
0000498d  sprintf                                   
000049ed  I2C_Init                                  
00004a49  ltoa                                      
00004aa1  _c_int00                                  
00004af5  C$$EXIT                                   
00004af9  abort                                     
00004b01  exit                                      
00004b49  SysCtl_getTLVInfo                         
00004be5  atoi                                      
00004c31  copy_in                                   
00004c7d  GPIO_setAsPeripheralModuleFunctionInputPin
00004d0d  __aeabi_d2iz                              
00004d55  Interrupt_registerInterrupt               
00004d89  __aeabi_i2d                               
00004db9  GPIO_setAsInputPin                        
00004de5  CS_clearInterruptFlag                     
00004e09  GPIO_setAsOutputPin                       
00004e2d  main                                      
00004e49  memccpy                                   
00004e65  CS_getACLK                                
00004e7d  CS_getMCLK                                
00004e95  CS_getSMCLK                               
00004ead  GPIO_setOutputLowOnPin                    
00004ec5  WDT_A_holdTimer                           
00004edd  _args_main                                
00004ef5  strchr                                    
00004f0d  CS_setExternalClockSourceFrequency        
00004f21  GPIO_setOutputHighOnPin                   
00004f35  _register_unlock                          
00004f3b  _register_lock                            
00004f43  _nop                                      
00004f49  copysign                                  
00004f49  copysignl                                 
00004f5d  strlen                                    
00004f71  SysCtl_disableNMISource                   
00004f81  SysCtl_enableNMISource                    
00004f91  __TI_decompress_none                      
00004f9f  Reset_Handler                             
00004fab  ADC14_IRQHandler                          
00004fab  AES256_IRQHandler                         
00004fab  BusFault_Handler                          
00004fab  COMP_E0_IRQHandler                        
00004fab  COMP_E1_IRQHandler                        
00004fab  CS_IRQHandler                             
00004fab  DMA_ERR_IRQHandler                        
00004fab  DMA_INT0_IRQHandler                       
00004fab  DMA_INT1_IRQHandler                       
00004fab  DMA_INT2_IRQHandler                       
00004fab  DMA_INT3_IRQHandler                       
00004fab  DebugMon_Handler                          
00004fab  Default_Handler                           
00004fab  EUSCIA0_IRQHandler                        
00004fab  EUSCIA1_IRQHandler                        
00004fab  EUSCIA2_IRQHandler                        
00004fab  EUSCIA3_IRQHandler                        
00004fab  EUSCIB0_IRQHandler                        
00004fab  EUSCIB1_IRQHandler                        
00004fab  EUSCIB2_IRQHandler                        
00004fab  EUSCIB3_IRQHandler                        
00004fab  FLCTL_IRQHandler                          
00004fab  FPU_IRQHandler                            
00004fab  HardFault_Handler                         
00004fab  MemManage_Handler                         
00004fab  NMI_Handler                               
00004fab  PCM_IRQHandler                            
00004fab  PORT1_IRQHandler                          
00004fab  PORT2_IRQHandler                          
00004fab  PORT3_IRQHandler                          
00004fab  PORT4_IRQHandler                          
00004fab  PORT5_IRQHandler                          
00004fab  PORT6_IRQHandler                          
00004fab  PSS_IRQHandler                            
00004fab  PendSV_Handler                            
00004fab  RTC_C_IRQHandler                          
00004fab  SVC_Handler                               
00004fab  SysTick_Handler                           
00004fab  T32_INT1_IRQHandler                       
00004fab  T32_INT2_IRQHandler                       
00004fab  T32_INTC_IRQHandler                       
00004fab  TA0_N_IRQHandler                          
00004fab  TA1_0_IRQHandler                          
00004fab  TA1_N_IRQHandler                          
00004fab  TA2_0_IRQHandler                          
00004fab  TA2_N_IRQHandler                          
00004fab  TA3_0_IRQHandler                          
00004fab  TA3_N_IRQHandler                          
00004fab  UsageFault_Handler                        
00004fab  WDT_A_IRQHandler                          
00004fad  SysCtl_getNMISourceStatus                 
00004fb9  __TI_zero_init                            
00004fc5  CS_startHFXT                              
00004fcb  _system_pre_init                          
000054cb  dBfs                                      
000056cb  _ctypes_                                  
0000589c  i2cConfig                                 
00005930  __TI_Handler_Table_Base                   
0000593c  __TI_Handler_Table_Limit                  
00005950  __TI_CINIT_Base                           
00005968  __TI_CINIT_Limit                          
20000000  g_pfnRAMVectors                           
200000e8  _sys_memory                               
200004e8  SensorReadings                            
20000570  ClockRegisters                            
200005c8  Message                                   
200005d8  KeypadState                               
200005dc  Messageindex                              
200005e0  X                                         
200005e4  Ymax                                      
200005e8  Ymin                                      
200005ec  Yrange                                    
200005f8  RefreshInterrupt                          
2000062c  StX                                       
20000630  StY                                       
20000634  StTextColor                               
2000063c  lastj                                     
20000640  __TI_cleanup_ptr                          
20000644  __TI_dtors_ptr                            
20000648  __TI_enable_exit_profile_output           
20000658  _lock                                     
2000065c  _unlock                                   
20000664  CurrentDigit                              
20000668  errno                                     
2000066c  main_func_sp                              
20000670  SystemCoreClock                           
2000fe00  __stack                                   
20010000  __STACK_END                               
4000480c  WDTCTL_SYM                                
ffffffff  __TI_pprof_out_hndl                       
ffffffff  __TI_prof_data_size                       
ffffffff  __TI_prof_data_start                      
ffffffff  __binit__                                 
ffffffff  __c_args__                                
ffffffff  binit                                     
UNDEFED   SHT$$INIT_ARRAY$$Base                     
UNDEFED   SHT$$INIT_ARRAY$$Limit                    

[247 symbols]
